; Function Attrs: mustprogress uwtable
define ptr @_ZN6node_t7node_atEm(ptr noundef nonnull readonly align 8 captures(none) dereferenceable(8) %0, i64 noundef %1) local_unnamed_addr #7 align 2 {
  %3 = alloca %struct.node_t, align 8
  %4 = load ptr, ptr %0, align 8, !tbaa !3
  %5 = getelementptr inbounds nuw i8, ptr %4, i64 8
  %.0.copyload.i = load i32, ptr %5, align 1
  %6 = zext i32 %.0.copyload.i to i64
  %.not = icmp ult i64 %1, %6
  br i1 %.not, label %12, label %7, !prof !9

7:                                                ; preds = %2
  %8 = load ptr, ptr @stderr, align 8, !tbaa !10
  %9 = tail call i32 (ptr, ptr, ...) @fprintf(ptr noundef %8, ptr noundef nonnull @.str, ptr noundef nonnull @.str.1, ptr noundef nonnull @.str.2, i32 noundef 97) #23
  %10 = load ptr, ptr @stderr, align 8, !tbaa !10
  %11 = tail call i32 @fflush(ptr noundef %10)
  tail call void @_ZN3zmq9zmq_abortEPKc(ptr noundef nonnull @.str.1)
  %.pre = load ptr, ptr %0, align 8, !tbaa !3
  %.phi.trans.insert = getelementptr inbounds nuw i8, ptr %.pre, i64 8
  %.0.copyload.i1.i.pre = load i32, ptr %.phi.trans.insert, align 1
  %.pre4 = zext i32 %.0.copyload.i1.i.pre to i64
  br label %12

12:                                               ; preds = %2, %7
  %.pre-phi = phi i64 [ %6, %2 ], [ %.pre4, %7 ]
  %13 = phi ptr [ %4, %2 ], [ %.pre, %7 ]
  %14 = getelementptr inbounds nuw i8, ptr %13, i64 12
  %15 = getelementptr inbounds nuw i8, ptr %13, i64 4
  %.0.copyload.i.i = load i32, ptr %15, align 1
  %16 = zext i32 %.0.copyload.i.i to i64
  %17 = getelementptr inbounds nuw i8, ptr %14, i64 %16
  %18 = getelementptr inbounds nuw i8, ptr %17, i64 %.pre-phi
  %19 = shl i64 %1, 3
  %20 = getelementptr inbounds nuw i8, ptr %18, i64 %19
  %.0.copyload = load ptr, ptr %20, align 1
  call void @_ZN6node_tC1EPh(ptr noundef nonnull align 8 dereferenceable(8) %3, ptr noundef %.0.copyload)
  %21 = load ptr, ptr %3, align 8
  ret ptr %21
}